target datalayout = "e-m:e-p270:32:32-p271:32:32-p272:64:64-i64:64-i128:128-f80:128-n8:16:32:64-S128"
target triple = "x86_64-pc-linux-gnu"

%struct.ResultRelInfo = type { i32, i32, ptr, i32, ptr, ptr, i16, ptr, i8, ptr, ptr, ptr, i8, i8, ptr, ptr, ptr, ptr, ptr, ptr, ptr, ptr, ptr, ptr, i8, i32, i32, i32, ptr, ptr, ptr, ptr, ptr, ptr, ptr, i32, i32, ptr, ptr, ptr, ptr, [3 x ptr], ptr, ptr, ptr, i8, ptr, i8, ptr, ptr, ptr, ptr }
%struct.RelationData = type { %struct.RelFileLocator, ptr, i32, i32, i8, i8, i8, i8, i8, i32, i32, i32, i32, ptr, ptr, i32, %struct.LockInfoData, ptr, ptr, ptr, ptr, ptr, i8, ptr, ptr, ptr, ptr, ptr, ptr, i32, ptr, i8, ptr, ptr, i32, i8, i32, ptr, i8, ptr, ptr, ptr, ptr, ptr, ptr, ptr, i32, ptr, ptr, ptr, ptr, ptr, ptr, ptr, ptr, ptr, ptr, ptr, ptr, ptr, ptr, ptr, ptr, ptr, ptr, ptr, i32, i8, ptr }
%struct.RelFileLocator = type { i32, i32, i32 }
%struct.LockInfoData = type { %struct.LockRelId }
%struct.LockRelId = type { i32, i32 }
%struct.EState = type { i32, i32, ptr, ptr, ptr, i32, ptr, ptr, ptr, ptr, ptr, ptr, ptr, ptr, ptr, ptr, i32, ptr, ptr, ptr, ptr, ptr, ptr, ptr, ptr, ptr, ptr, i64, i64, i32, i32, i8, ptr, ptr, ptr, ptr, ptr, i8, i32, i32, ptr, i32, ptr, ptr, ptr, ptr }
%struct.ModifyTableState = type { %struct.PlanState, i32, i8, i8, i32, ptr, ptr, %struct.EPQState, i8, i32, i32, i32, ptr, ptr, ptr, ptr, ptr, i32, ptr, ptr, double, double, double, ptr, ptr, ptr }
%struct.PlanState = type { i32, ptr, ptr, ptr, ptr, ptr, ptr, ptr, ptr, ptr, ptr, ptr, ptr, ptr, ptr, ptr, ptr, ptr, i8, ptr, ptr, ptr, ptr, ptr, i8, i8, i8, i8, i8, i8, i8, i8 }
%struct.EPQState = type { ptr, i32, ptr, ptr, ptr, ptr, ptr, ptr, ptr, ptr, ptr, ptr, ptr }
%struct.Plan = type { i32, i32, double, double, double, i32, i8, i8, i8, i32, ptr, ptr, ptr, ptr, ptr, ptr, ptr }
%struct.List = type { i32, i32, i32, ptr, [0 x %union.ListCell] }
%union.ListCell = type { ptr }

; Function Attrs: inlinehint nounwind uwtable
define internal ptr @list_nth_cell(ptr noundef %0, i32 noundef %1) #3 {
  %3 = alloca ptr, align 8
  %4 = alloca i32, align 4
  store ptr %0, ptr %3, align 8
  store i32 %1, ptr %4, align 4
  %5 = load ptr, ptr %3, align 8
  %6 = getelementptr inbounds nuw %struct.List, ptr %5, i32 0, i32 3
  %7 = load ptr, ptr %6, align 8
  %8 = load i32, ptr %4, align 4
  %9 = sext i32 %8 to i64
  %10 = getelementptr inbounds %union.ListCell, ptr %7, i64 %9
  ret ptr %10
}

; Function Attrs: inlinehint nounwind uwtable
define internal ptr @list_nth(ptr noundef %0, i32 noundef %1) #3 {
  %3 = alloca ptr, align 8
  %4 = alloca i32, align 4
  store ptr %0, ptr %3, align 8
  store i32 %1, ptr %4, align 4
  %5 = load ptr, ptr %3, align 8
  %6 = load i32, ptr %4, align 4
  %7 = call ptr @list_nth_cell(ptr noundef %5, i32 noundef %6)
  %8 = load ptr, ptr %7, align 8
  ret ptr %8
}

; Function Attrs: nounwind uwtable
define internal void @ExecInitUpdateProjection(ptr noundef %0, ptr noundef %1) #0 {
  %3 = alloca ptr, align 8
  %4 = alloca ptr, align 8
  %5 = alloca ptr, align 8
  %6 = alloca ptr, align 8
  %7 = alloca ptr, align 8
  %8 = alloca ptr, align 8
  %9 = alloca i32, align 4
  %10 = alloca ptr, align 8
  store ptr %0, ptr %3, align 8
  store ptr %1, ptr %4, align 8
  call void @llvm.lifetime.start.p0(i64 8, ptr %5) #8
  %11 = load ptr, ptr %3, align 8
  %12 = getelementptr inbounds nuw %struct.ModifyTableState, ptr %11, i32 0, i32 0
  %13 = getelementptr inbounds nuw %struct.PlanState, ptr %12, i32 0, i32 1
  %14 = load ptr, ptr %13, align 8
  store ptr %14, ptr %5, align 8
  call void @llvm.lifetime.start.p0(i64 8, ptr %6) #8
  %15 = load ptr, ptr %5, align 8
  %16 = getelementptr inbounds nuw %struct.Plan, ptr %15, i32 0, i32 12
  %17 = load ptr, ptr %16, align 8
  store ptr %17, ptr %6, align 8
  call void @llvm.lifetime.start.p0(i64 8, ptr %7) #8
  %18 = load ptr, ptr %3, align 8
  %19 = getelementptr inbounds nuw %struct.ModifyTableState, ptr %18, i32 0, i32 0
  %20 = getelementptr inbounds nuw %struct.PlanState, ptr %19, i32 0, i32 2
  %21 = load ptr, ptr %20, align 8
  store ptr %21, ptr %7, align 8
  call void @llvm.lifetime.start.p0(i64 8, ptr %8) #8
  %22 = load ptr, ptr %4, align 8
  %23 = getelementptr inbounds nuw %struct.ResultRelInfo, ptr %22, i32 0, i32 2
  %24 = load ptr, ptr %23, align 8
  %25 = getelementptr inbounds nuw %struct.RelationData, ptr %24, i32 0, i32 14
  %26 = load ptr, ptr %25, align 8
  store ptr %26, ptr %8, align 8
  call void @llvm.lifetime.start.p0(i64 4, ptr %9) #8
  call void @llvm.lifetime.start.p0(i64 8, ptr %10) #8
  %27 = load ptr, ptr %3, align 8
  %28 = getelementptr inbounds nuw %struct.ModifyTableState, ptr %27, i32 0, i32 11
  %29 = load i32, ptr %28, align 4
  store i32 %29, ptr %9, align 4
  %30 = load ptr, ptr %4, align 8
  %31 = load ptr, ptr %3, align 8
  %32 = getelementptr inbounds nuw %struct.ModifyTableState, ptr %31, i32 0, i32 5
  %33 = load ptr, ptr %32, align 8
  %34 = load i32, ptr %9, align 4
  %35 = sext i32 %34 to i64
  %36 = getelementptr inbounds %struct.ResultRelInfo, ptr %33, i64 %35
  %37 = icmp ne ptr %30, %36
  br i1 %37, label %38, label %48

38:                                               ; preds = %2
  %39 = load ptr, ptr %4, align 8
  %40 = load ptr, ptr %3, align 8
  %41 = getelementptr inbounds nuw %struct.ModifyTableState, ptr %40, i32 0, i32 5
  %42 = load ptr, ptr %41, align 8
  %43 = ptrtoint ptr %39 to i64
  %44 = ptrtoint ptr %42 to i64
  %45 = sub i64 %43, %44
  %46 = sdiv exact i64 %45, 392
  %47 = trunc i64 %46 to i32
  store i32 %47, ptr %9, align 4
  br label %48

48:                                               ; preds = %38, %2
  %49 = load ptr, ptr %3, align 8
  %50 = getelementptr inbounds nuw %struct.ModifyTableState, ptr %49, i32 0, i32 23
  %51 = load ptr, ptr %50, align 8
  %52 = load i32, ptr %9, align 4
  %53 = call ptr @list_nth(ptr noundef %51, i32 noundef %52)
  store ptr %53, ptr %10, align 8
  %54 = load ptr, ptr %4, align 8
  %55 = getelementptr inbounds nuw %struct.ResultRelInfo, ptr %54, i32 0, i32 2
  %56 = load ptr, ptr %55, align 8
  %57 = load ptr, ptr %7, align 8
  %58 = getelementptr inbounds nuw %struct.EState, ptr %57, i32 0, i32 26
  %59 = call ptr @table_slot_create(ptr noundef %56, ptr noundef %58)
  %60 = load ptr, ptr %4, align 8
  %61 = getelementptr inbounds nuw %struct.ResultRelInfo, ptr %60, i32 0, i32 11
  store ptr %59, ptr %61, align 8
  %62 = load ptr, ptr %4, align 8
  %63 = getelementptr inbounds nuw %struct.ResultRelInfo, ptr %62, i32 0, i32 2
  %64 = load ptr, ptr %63, align 8
  %65 = load ptr, ptr %7, align 8
  %66 = getelementptr inbounds nuw %struct.EState, ptr %65, i32 0, i32 26
  %67 = call ptr @table_slot_create(ptr noundef %64, ptr noundef %66)
  %68 = load ptr, ptr %4, align 8
  %69 = getelementptr inbounds nuw %struct.ResultRelInfo, ptr %68, i32 0, i32 10
  store ptr %67, ptr %69, align 8
  %70 = load ptr, ptr %3, align 8
  %71 = getelementptr inbounds nuw %struct.ModifyTableState, ptr %70, i32 0, i32 0
  %72 = getelementptr inbounds nuw %struct.PlanState, ptr %71, i32 0, i32 16
  %73 = load ptr, ptr %72, align 8
  %74 = icmp eq ptr %73, null
  br i1 %74, label %75, label %79

75:                                               ; preds = %48
  %76 = load ptr, ptr %7, align 8
  %77 = load ptr, ptr %3, align 8
  %78 = getelementptr inbounds nuw %struct.ModifyTableState, ptr %77, i32 0, i32 0
  call void @ExecAssignExprContext(ptr noundef %76, ptr noundef %78)
  br label %79

79:                                               ; preds = %75, %48
  %80 = load ptr, ptr %6, align 8
  %81 = getelementptr inbounds nuw %struct.Plan, ptr %80, i32 0, i32 10
  %82 = load ptr, ptr %81, align 8
  %83 = load ptr, ptr %10, align 8
  %84 = load ptr, ptr %8, align 8
  %85 = load ptr, ptr %3, align 8
  %86 = getelementptr inbounds nuw %struct.ModifyTableState, ptr %85, i32 0, i32 0
  %87 = getelementptr inbounds nuw %struct.PlanState, ptr %86, i32 0, i32 16
  %88 = load ptr, ptr %87, align 8
  %89 = load ptr, ptr %4, align 8
  %90 = getelementptr inbounds nuw %struct.ResultRelInfo, ptr %89, i32 0, i32 10
  %91 = load ptr, ptr %90, align 8
  %92 = load ptr, ptr %3, align 8
  %93 = getelementptr inbounds nuw %struct.ModifyTableState, ptr %92, i32 0, i32 0
  %94 = call ptr @ExecBuildUpdateProjection(ptr noundef %82, i1 noundef zeroext false, ptr noundef %83, ptr noundef %84, ptr noundef %88, ptr noundef %91, ptr noundef %93)
  %95 = load ptr, ptr %4, align 8
  %96 = getelementptr inbounds nuw %struct.ResultRelInfo, ptr %95, i32 0, i32 9
  store ptr %94, ptr %96, align 8
  %97 = load ptr, ptr %4, align 8
  %98 = getelementptr inbounds nuw %struct.ResultRelInfo, ptr %97, i32 0, i32 12
  store i8 1, ptr %98, align 8
  call void @llvm.lifetime.end.p0(i64 8, ptr %10) #8
  call void @llvm.lifetime.end.p0(i64 4, ptr %9) #8
  call void @llvm.lifetime.end.p0(i64 8, ptr %8) #8
  call void @llvm.lifetime.end.p0(i64 8, ptr %7) #8
  call void @llvm.lifetime.end.p0(i64 8, ptr %6) #8
  call void @llvm.lifetime.end.p0(i64 8, ptr %5) #8
  ret void
}