; Function Attrs: nounwind uwtable
define internal fastcc void @ExecInitUpdateProjection(ptr noundef %0, ptr noundef %1) unnamed_addr #0 {
  %3 = getelementptr inbounds nuw i8, ptr %0, i64 8
  %4 = load ptr, ptr %3, align 8
  %5 = getelementptr inbounds nuw i8, ptr %4, i64 64
  %6 = load ptr, ptr %5, align 8
  %7 = getelementptr inbounds nuw i8, ptr %0, i64 16
  %8 = load ptr, ptr %7, align 8
  %9 = getelementptr inbounds nuw i8, ptr %1, i64 8
  %10 = load ptr, ptr %9, align 8
  %11 = getelementptr inbounds nuw i8, ptr %10, i64 64
  %12 = load ptr, ptr %11, align 8
  %13 = getelementptr inbounds nuw i8, ptr %0, i64 348
  %14 = load i32, ptr %13, align 4
  %15 = getelementptr inbounds nuw i8, ptr %0, i64 216
  %16 = load ptr, ptr %15, align 8
  %17 = sext i32 %14 to i64
  %18 = getelementptr inbounds %struct.ResultRelInfo, ptr %16, i64 %17
  %.not = icmp eq ptr %1, %18
  br i1 %.not, label %24, label %19

19:                                               ; preds = %2
  %20 = ptrtoint ptr %1 to i64
  %21 = ptrtoint ptr %16 to i64
  %22 = sub i64 %20, %21
  %23 = sdiv exact i64 %22, 392
  %sext = shl i64 %23, 32
  %.pre = ashr exact i64 %sext, 32
  br label %24

24:                                               ; preds = %19, %2
  %.pre-phi = phi i64 [ %.pre, %19 ], [ %17, %2 ]
  %25 = getelementptr inbounds nuw i8, ptr %0, i64 440
  %26 = load ptr, ptr %25, align 8
  %27 = getelementptr i8, ptr %26, i64 16
  %.val = load ptr, ptr %27, align 8
  %28 = getelementptr inbounds %union.ListCell, ptr %.val, i64 %.pre-phi
  %29 = load ptr, ptr %28, align 8
  %30 = getelementptr inbounds nuw i8, ptr %8, i64 200
  %31 = tail call ptr @table_slot_create(ptr noundef nonnull %10, ptr noundef nonnull %30) #9
  %32 = getelementptr inbounds nuw i8, ptr %1, i64 80
  store ptr %31, ptr %32, align 8
  %33 = load ptr, ptr %9, align 8
  %34 = tail call ptr @table_slot_create(ptr noundef %33, ptr noundef nonnull %30) #9
  %35 = getelementptr inbounds nuw i8, ptr %1, i64 72
  store ptr %34, ptr %35, align 8
  %36 = getelementptr inbounds nuw i8, ptr %0, i64 128
  %37 = load ptr, ptr %36, align 8
  %38 = icmp eq ptr %37, null
  br i1 %38, label %39, label %40

39:                                               ; preds = %24
  tail call void @ExecAssignExprContext(ptr noundef nonnull %8, ptr noundef nonnull %0) #9
  %.pre29 = load ptr, ptr %36, align 8
  %.pre30 = load ptr, ptr %35, align 8
  br label %40

40:                                               ; preds = %39, %24
  %41 = phi ptr [ %.pre30, %39 ], [ %34, %24 ]
  %42 = phi ptr [ %.pre29, %39 ], [ %37, %24 ]
  %43 = getelementptr inbounds nuw i8, ptr %6, i64 48
  %44 = load ptr, ptr %43, align 8
  %45 = tail call ptr @ExecBuildUpdateProjection(ptr noundef %44, i1 noundef zeroext false, ptr noundef %29, ptr noundef %12, ptr noundef %42, ptr noundef %41, ptr noundef nonnull %0) #9
  %46 = getelementptr inbounds nuw i8, ptr %1, i64 64
  store ptr %45, ptr %46, align 8
  %47 = getelementptr inbounds nuw i8, ptr %1, i64 88
  store i8 1, ptr %47, align 8
  ret void
}